target datalayout = "e-m:e-p270:32:32-p271:32:32-p272:64:64-i64:64-i128:128-f80:128-n8:16:32:64-S128"
target triple = "x86_64-pc-linux-gnu"

%struct.repository = type { ptr, ptr, ptr, ptr, ptr, %struct.strmap, %struct.strmap, %struct.repo_path_cache, ptr, ptr, ptr, ptr, %struct.repo_settings, ptr, ptr, ptr, ptr, ptr, ptr, i32, i32, i32, ptr, ptr, i32, i32, i8 }
%struct.strmap = type { %struct.hashmap, ptr, i8 }
%struct.hashmap = type { ptr, ptr, ptr, i32, i32, i32, i32, i8 }
%struct.repo_path_cache = type { ptr, ptr, ptr, ptr, ptr, ptr, ptr }
%struct.repo_settings = type { i32, i32, i32, i32, i32, i32, i32, i32, i32, i32, i32, i32, ptr, i32, i32, i32, i32, i32, i32, i32, i64, i64, i64 }
%struct.raw_object_store = type { ptr, ptr, ptr, i32, ptr, ptr, i8, %union.pthread_mutex_t, ptr, i8, ptr, ptr, %struct.list_head, %struct.anon, %struct.hashmap, i64, i8 }
%union.pthread_mutex_t = type { %struct.__pthread_mutex_s }
%struct.__pthread_mutex_s = type { i32, i32, i32, i32, i32, i16, i16, %struct.__pthread_internal_list }
%struct.__pthread_internal_list = type { ptr, ptr }
%struct.list_head = type { ptr, ptr }
%struct.anon = type { ptr, i32 }
%struct.oidmap = type { %struct.hashmap }
%struct.parsed_object_pool = type { ptr, ptr, i32, i32, ptr, ptr, ptr, ptr, ptr, ptr, i32, i32, i32, ptr, ptr, i32, i32, ptr }

@.str.57 = private unnamed_addr constant [12 x i8] c"./hashmap.h\00", align 1
@.str.58 = private unnamed_addr constant [31 x i8] c"hashmap_get_size: size not set\00", align 1

; Function Attrs: inlinehint nounwind uwtable
define internal i32 @hashmap_get_size(ptr noundef %0) #5 {
  %2 = alloca ptr, align 8
  store ptr %0, ptr %2, align 8, !tbaa !327
  %3 = load ptr, ptr %2, align 8, !tbaa !327
  %4 = getelementptr inbounds nuw %struct.hashmap, ptr %3, i32 0, i32 7
  %5 = load i8, ptr %4, align 8
  %6 = and i8 %5, 1
  %7 = zext i8 %6 to i32
  %8 = icmp ne i32 %7, 0
  br i1 %8, label %9, label %13

9:                                                ; preds = %1
  %10 = load ptr, ptr %2, align 8, !tbaa !327
  %11 = getelementptr inbounds nuw %struct.hashmap, ptr %10, i32 0, i32 3
  %12 = load i32, ptr %11, align 8, !tbaa !329
  ret i32 %12

13:                                               ; preds = %1
  call void (ptr, i32, ptr, ...) @BUG_fl(ptr noundef @.str.57, i32 noundef 308, ptr noundef @.str.58) #13
  unreachable
}

; Function Attrs: nounwind uwtable
define internal i32 @commit_graph_compatible(ptr noundef %0) #0 {
  %2 = alloca i32, align 4
  %3 = alloca ptr, align 8
  store ptr %0, ptr %3, align 8, !tbaa !8
  %4 = load ptr, ptr %3, align 8, !tbaa !8
  %5 = getelementptr inbounds nuw %struct.repository, ptr %4, i32 0, i32 0
  %6 = load ptr, ptr %5, align 8, !tbaa !136
  %7 = icmp ne ptr %6, null
  br i1 %7, label %9, label %8

8:                                                ; preds = %1
  store i32 0, ptr %2, align 4
  br label %52

9:                                                ; preds = %1
  %10 = load ptr, ptr %3, align 8, !tbaa !8
  %11 = call i32 @replace_refs_enabled(ptr noundef %10)
  %12 = icmp ne i32 %11, 0
  br i1 %12, label %13, label %25

13:                                               ; preds = %9
  %14 = load ptr, ptr %3, align 8, !tbaa !8
  call void @prepare_replace_object(ptr noundef %14)
  %15 = load ptr, ptr %3, align 8, !tbaa !8
  %16 = getelementptr inbounds nuw %struct.repository, ptr %15, i32 0, i32 2
  %17 = load ptr, ptr %16, align 8, !tbaa !11
  %18 = getelementptr inbounds nuw %struct.raw_object_store, ptr %17, i32 0, i32 5
  %19 = load ptr, ptr %18, align 8, !tbaa !227
  %20 = getelementptr inbounds nuw %struct.oidmap, ptr %19, i32 0, i32 0
  %21 = call i32 @hashmap_get_size(ptr noundef %20)
  %22 = icmp ne i32 %21, 0
  br i1 %22, label %23, label %24

23:                                               ; preds = %13
  store i32 0, ptr %2, align 4
  br label %52

24:                                               ; preds = %13
  br label %25

25:                                               ; preds = %24, %9
  %26 = load ptr, ptr %3, align 8, !tbaa !8
  call void @prepare_commit_graft(ptr noundef %26)
  %27 = load ptr, ptr %3, align 8, !tbaa !8
  %28 = getelementptr inbounds nuw %struct.repository, ptr %27, i32 0, i32 3
  %29 = load ptr, ptr %28, align 8, !tbaa !228
  %30 = icmp ne ptr %29, null
  br i1 %30, label %31, label %46

31:                                               ; preds = %25
  %32 = load ptr, ptr %3, align 8, !tbaa !8
  %33 = getelementptr inbounds nuw %struct.repository, ptr %32, i32 0, i32 3
  %34 = load ptr, ptr %33, align 8, !tbaa !228
  %35 = getelementptr inbounds nuw %struct.parsed_object_pool, ptr %34, i32 0, i32 11
  %36 = load i32, ptr %35, align 4, !tbaa !229
  %37 = icmp ne i32 %36, 0
  br i1 %37, label %45, label %38

38:                                               ; preds = %31
  %39 = load ptr, ptr %3, align 8, !tbaa !8
  %40 = getelementptr inbounds nuw %struct.repository, ptr %39, i32 0, i32 3
  %41 = load ptr, ptr %40, align 8, !tbaa !228
  %42 = getelementptr inbounds nuw %struct.parsed_object_pool, ptr %41, i32 0, i32 16
  %43 = load i32, ptr %42, align 4, !tbaa !236
  %44 = icmp ne i32 %43, 0
  br i1 %44, label %45, label %46

45:                                               ; preds = %38, %31
  store i32 0, ptr %2, align 4
  br label %52

46:                                               ; preds = %38, %25
  %47 = load ptr, ptr %3, align 8, !tbaa !8
  %48 = call i32 @is_repository_shallow(ptr noundef %47)
  %49 = icmp ne i32 %48, 0
  br i1 %49, label %50, label %51

50:                                               ; preds = %46
  store i32 0, ptr %2, align 4
  br label %52

51:                                               ; preds = %46
  store i32 1, ptr %2, align 4
  br label %52

52:                                               ; preds = %51, %50, %45, %23, %8
  %53 = load i32, ptr %2, align 4
  ret i32 %53
}