; Function Attrs: nounwind uwtable
define internal fastcc range(i32 0, 2) i32 @commit_graph_compatible(ptr noundef %0) unnamed_addr #0 {
  %2 = load ptr, ptr %0, align 8, !tbaa !124
  %.not = icmp eq ptr %2, null
  br i1 %.not, label %27, label %3

3:                                                ; preds = %1
  %4 = tail call i32 @replace_refs_enabled(ptr noundef nonnull %0) #24
  %.not10 = icmp eq i32 %4, 0
  br i1 %.not10, label %16, label %5

5:                                                ; preds = %3
  tail call void @prepare_replace_object(ptr noundef nonnull %0) #24
  %6 = getelementptr inbounds nuw i8, ptr %0, i64 16
  %7 = load ptr, ptr %6, align 8, !tbaa !9
  %8 = getelementptr inbounds nuw i8, ptr %7, i64 40
  %9 = load ptr, ptr %8, align 8, !tbaa !248
  %10 = getelementptr inbounds nuw i8, ptr %9, i64 40
  %11 = load i8, ptr %10, align 8
  %12 = and i8 %11, 1
  %.not.i = icmp eq i8 %12, 0
  br i1 %.not.i, label %13, label %hashmap_get_size.exit

13:                                               ; preds = %5
  tail call void (ptr, i32, ptr, ...) @BUG_fl(ptr noundef nonnull @.str.57, i32 noundef 308, ptr noundef nonnull @.str.58) #25
  unreachable

hashmap_get_size.exit:                            ; preds = %5
  %14 = getelementptr inbounds nuw i8, ptr %9, i64 24
  %15 = load i32, ptr %14, align 8, !tbaa !249
  %.not11 = icmp eq i32 %15, 0
  br i1 %.not11, label %16, label %27

16:                                               ; preds = %hashmap_get_size.exit, %3
  tail call void @prepare_commit_graft(ptr noundef nonnull %0) #24
  %17 = getelementptr inbounds nuw i8, ptr %0, i64 24
  %18 = load ptr, ptr %17, align 8, !tbaa !250
  %.not12 = icmp eq ptr %18, null
  br i1 %.not12, label %25, label %19

19:                                               ; preds = %16
  %20 = getelementptr inbounds nuw i8, ptr %18, i64 76
  %21 = load i32, ptr %20, align 4, !tbaa !251
  %.not13 = icmp eq i32 %21, 0
  br i1 %.not13, label %22, label %27

22:                                               ; preds = %19
  %23 = getelementptr inbounds nuw i8, ptr %18, i64 108
  %24 = load i32, ptr %23, align 4, !tbaa !258
  %.not14 = icmp eq i32 %24, 0
  br i1 %.not14, label %25, label %27

25:                                               ; preds = %22, %16
  %26 = tail call i32 @is_repository_shallow(ptr noundef nonnull %0) #24
  %.not15 = icmp eq i32 %26, 0
  %. = zext i1 %.not15 to i32
  br label %27

27:                                               ; preds = %25, %19, %22, %hashmap_get_size.exit, %1
  %.0 = phi i32 [ 0, %1 ], [ 0, %hashmap_get_size.exit ], [ 0, %22 ], [ 0, %19 ], [ %., %25 ]
  ret i32 %.0
}